target datalayout = "e-m:e-p270:32:32-p271:32:32-p272:64:64-i64:64-i128:128-f80:128-n8:16:32:64-S128"
target triple = "x86_64-pc-linux-gnu"

%"struct.std::array" = type { [62 x i32] }

@_ZN7rocksdb6crc32cL12ChosenExtendE = internal global ptr null, align 8

; Function Attrs: mustprogress uwtable
define internal noundef i32 @_ZN7rocksdb6crc32cL16gf_multiply_sw_1Emjjjj(i64 noundef %0, i32 noundef %1, i32 noundef %2, i32 noundef %3, i32 noundef %4) #0 {
  %6 = alloca i64, align 8
  %7 = alloca i32, align 4
  %8 = alloca i32, align 4
  %9 = alloca i32, align 4
  %10 = alloca i32, align 4
  store i64 %0, ptr %6, align 8, !tbaa !15
  store i32 %1, ptr %7, align 4, !tbaa !17
  store i32 %2, ptr %8, align 4, !tbaa !17
  store i32 %3, ptr %9, align 4, !tbaa !17
  store i32 %4, ptr %10, align 4, !tbaa !17
  %11 = load i64, ptr %6, align 8, !tbaa !15
  %12 = icmp eq i64 %11, 32
  br i1 %12, label %13, label %15

13:                                               ; preds = %5
  %14 = load i32, ptr %7, align 4, !tbaa !17
  br label %38

15:                                               ; preds = %5
  %16 = load i64, ptr %6, align 8, !tbaa !15
  %17 = add i64 %16, 1
  %18 = load i32, ptr %7, align 4, !tbaa !17
  %19 = load i32, ptr %9, align 4, !tbaa !17
  %20 = lshr i32 %19, 31
  %21 = and i32 %20, 1
  %22 = sub i32 0, %21
  %23 = load i32, ptr %8, align 4, !tbaa !17
  %24 = and i32 %22, %23
  %25 = xor i32 %18, %24
  %26 = load i32, ptr %8, align 4, !tbaa !17
  %27 = lshr i32 %26, 1
  %28 = load i32, ptr %8, align 4, !tbaa !17
  %29 = and i32 %28, 1
  %30 = sub i32 0, %29
  %31 = load i32, ptr %10, align 4, !tbaa !17
  %32 = and i32 %30, %31
  %33 = xor i32 %27, %32
  %34 = load i32, ptr %9, align 4, !tbaa !17
  %35 = shl i32 %34, 1
  %36 = load i32, ptr %10, align 4, !tbaa !17
  %37 = call noundef i32 @_ZN7rocksdb6crc32cL16gf_multiply_sw_1Emjjjj(i64 noundef %17, i32 noundef %25, i32 noundef %33, i32 noundef %35, i32 noundef %36)
  br label %38

38:                                               ; preds = %15, %13
  %39 = phi i32 [ %14, %13 ], [ %37, %15 ]
  ret i32 %39
}

; Function Attrs: mustprogress nounwind uwtable
define linkonce_odr noundef ptr @_ZNSt14__array_traitsIjLm62EE6_S_ptrERA62_Kj(ptr noundef nonnull align 4 dereferenceable(248) %0) #2 comdat align 2 {
  %2 = alloca ptr, align 8
  store ptr %0, ptr %2, align 8, !tbaa !34
  %3 = load ptr, ptr %2, align 8, !tbaa !34
  %4 = getelementptr inbounds [62 x i32], ptr %3, i64 0, i64 0
  ret ptr %4
}

; Function Attrs: mustprogress uwtable
define internal noundef i32 @_ZN7rocksdb6crc32cL14gf_multiply_swEjjj(i32 noundef %0, i32 noundef %1, i32 noundef %2) #0 {
  %4 = alloca i32, align 4
  %5 = alloca i32, align 4
  %6 = alloca i32, align 4
  store i32 %0, ptr %4, align 4, !tbaa !17
  store i32 %1, ptr %5, align 4, !tbaa !17
  store i32 %2, ptr %6, align 4, !tbaa !17
  %7 = load i32, ptr %4, align 4, !tbaa !17
  %8 = load i32, ptr %5, align 4, !tbaa !17
  %9 = load i32, ptr %6, align 4, !tbaa !17
  %10 = call noundef i32 @_ZN7rocksdb6crc32cL16gf_multiply_sw_1Emjjjj(i64 noundef 0, i32 noundef 0, i32 noundef %7, i32 noundef %8, i32 noundef %9)
  ret i32 %10
}

; Function Attrs: inlinehint mustprogress nounwind uwtable
define linkonce_odr noundef i32 @_ZN7rocksdb21CountTrailingZeroBitsImEEiT_(i64 noundef %0) #7 comdat {
  %2 = alloca i64, align 8
  store i64 %0, ptr %2, align 8, !tbaa !15
  %3 = load i64, ptr %2, align 8, !tbaa !15
  %4 = call i64 @llvm.cttz.i64(i64 %3, i1 true)
  %5 = trunc i64 %4 to i32
  ret i32 %5
}

; Function Attrs: mustprogress nounwind uwtable
define linkonce_odr noundef ptr @_ZNKSt5arrayIjLm62EE4dataEv(ptr noundef nonnull align 4 dereferenceable(248) %0) #2 comdat align 2 {
  %2 = alloca ptr, align 8
  store ptr %0, ptr %2, align 8, !tbaa !32
  %3 = load ptr, ptr %2, align 8
  %4 = getelementptr inbounds nuw %"struct.std::array", ptr %3, i32 0, i32 0
  %5 = call noundef ptr @_ZNSt14__array_traitsIjLm62EE6_S_ptrERA62_Kj(ptr noundef nonnull align 4 dereferenceable(248) %4) #17
  ret ptr %5
}

; Function Attrs: mustprogress uwtable
define noundef i32 @_ZN7rocksdb6crc32c6ExtendEjPKcm(i32 noundef %0, ptr noundef %1, i64 noundef %2) #0 {
  %4 = alloca i32, align 4
  %5 = alloca ptr, align 8
  %6 = alloca i64, align 8
  store i32 %0, ptr %4, align 4, !tbaa !17
  store ptr %1, ptr %5, align 8, !tbaa !13
  store i64 %2, ptr %6, align 8, !tbaa !15
  %7 = load ptr, ptr @_ZN7rocksdb6crc32cL12ChosenExtendE, align 8, !tbaa !31
  %8 = load i32, ptr %4, align 4, !tbaa !17
  %9 = load ptr, ptr %5, align 8, !tbaa !13
  %10 = load i64, ptr %6, align 8, !tbaa !15
  %11 = call noundef i32 %7(i32 noundef %8, ptr noundef %9, i64 noundef %10)
  ret i32 %11
}

; Function Attrs: inlinehint mustprogress nounwind uwtable
define internal noundef i32 @_ZN7rocksdb6crc32cL14PureToInvertedEj(i32 noundef %0) #7 {
  %2 = alloca i32, align 4
  store i32 %0, ptr %2, align 4, !tbaa !17
  %3 = load i32, ptr %2, align 4, !tbaa !17
  %4 = xor i32 %3, -1
  ret i32 %4
}

; Function Attrs: mustprogress uwtable
define internal noundef i32 @_ZN7rocksdb6crc32cL17Crc32AppendZeroesEjmjRKSt5arrayIjLm62EE(i32 noundef %0, i64 noundef %1, i32 noundef %2, ptr noundef nonnull align 4 dereferenceable(248) %3) #0 {
  %5 = alloca i32, align 4
  %6 = alloca i64, align 8
  %7 = alloca i32, align 4
  %8 = alloca ptr, align 8
  %9 = alloca ptr, align 8
  %10 = alloca i64, align 8
  %11 = alloca i32, align 4
  store i32 %0, ptr %5, align 4, !tbaa !17
  store i64 %1, ptr %6, align 8, !tbaa !15
  store i32 %2, ptr %7, align 4, !tbaa !17
  store ptr %3, ptr %8, align 8, !tbaa !32
  call void @llvm.lifetime.start.p0(i64 8, ptr %9) #17
  %12 = load ptr, ptr %8, align 8, !tbaa !32
  %13 = call noundef ptr @_ZNKSt5arrayIjLm62EE4dataEv(ptr noundef nonnull align 4 dereferenceable(248) %12) #17
  store ptr %13, ptr %9, align 8, !tbaa !34
  call void @llvm.lifetime.start.p0(i64 8, ptr %10) #17
  %14 = load i64, ptr %6, align 8, !tbaa !15
  store i64 %14, ptr %10, align 8, !tbaa !15
  br label %15

15:                                               ; preds = %18, %4
  %16 = load i64, ptr %10, align 8, !tbaa !15
  %17 = icmp ne i64 %16, 0
  br i1 %17, label %18, label %38

18:                                               ; preds = %15
  call void @llvm.lifetime.start.p0(i64 4, ptr %11) #17
  %19 = load i64, ptr %10, align 8, !tbaa !15
  %20 = call noundef i32 @_ZN7rocksdb21CountTrailingZeroBitsImEEiT_(i64 noundef %19)
  store i32 %20, ptr %11, align 4, !tbaa !17
  %21 = load i32, ptr %11, align 4, !tbaa !17
  %22 = load i64, ptr %10, align 8, !tbaa !15
  %23 = zext i32 %21 to i64
  %24 = lshr i64 %22, %23
  store i64 %24, ptr %10, align 8, !tbaa !15
  %25 = load i32, ptr %11, align 4, !tbaa !17
  %26 = load ptr, ptr %9, align 8, !tbaa !34
  %27 = sext i32 %25 to i64
  %28 = getelementptr inbounds i32, ptr %26, i64 %27
  store ptr %28, ptr %9, align 8, !tbaa !34
  %29 = load i32, ptr %5, align 4, !tbaa !17
  %30 = load ptr, ptr %9, align 8, !tbaa !34
  %31 = load i32, ptr %30, align 4, !tbaa !17
  %32 = load i32, ptr %7, align 4, !tbaa !17
  %33 = call noundef i32 @_ZN7rocksdb6crc32cL14gf_multiply_swEjjj(i32 noundef %29, i32 noundef %31, i32 noundef %32)
  store i32 %33, ptr %5, align 4, !tbaa !17
  %34 = load i64, ptr %10, align 8, !tbaa !15
  %35 = lshr i64 %34, 1
  store i64 %35, ptr %10, align 8, !tbaa !15
  %36 = load ptr, ptr %9, align 8, !tbaa !34
  %37 = getelementptr inbounds nuw i32, ptr %36, i32 1
  store ptr %37, ptr %9, align 8, !tbaa !34
  call void @llvm.lifetime.end.p0(i64 4, ptr %11) #17
  br label %15, !llvm.loop !36

38:                                               ; preds = %15
  %39 = load i32, ptr %5, align 4, !tbaa !17
  call void @llvm.lifetime.end.p0(i64 8, ptr %10) #17
  call void @llvm.lifetime.end.p0(i64 8, ptr %9) #17
  ret i32 %39
}

; Function Attrs: inlinehint mustprogress uwtable
define internal noundef i32 @_ZN7rocksdb6crc32cL10PureExtendEjPKcm(i32 noundef %0, ptr noundef %1, i64 noundef %2) #3 {
  %4 = alloca i32, align 4
  %5 = alloca ptr, align 8
  %6 = alloca i64, align 8
  store i32 %0, ptr %4, align 4, !tbaa !17
  store ptr %1, ptr %5, align 8, !tbaa !13
  store i64 %2, ptr %6, align 8, !tbaa !15
  %7 = load i32, ptr %4, align 4, !tbaa !17
  %8 = call noundef i32 @_ZN7rocksdb6crc32cL14PureToInvertedEj(i32 noundef %7)
  %9 = load ptr, ptr %5, align 8, !tbaa !13
  %10 = load i64, ptr %6, align 8, !tbaa !15
  %11 = call noundef i32 @_ZN7rocksdb6crc32c6ExtendEjPKcm(i32 noundef %8, ptr noundef %9, i64 noundef %10)
  %12 = call noundef i32 @_ZN7rocksdb6crc32cL14InvertedToPureEj(i32 noundef %11)
  ret i32 %12
}

; Function Attrs: inlinehint mustprogress nounwind uwtable
define internal noundef i32 @_ZN7rocksdb6crc32cL14InvertedToPureEj(i32 noundef %0) #7 {
  %2 = alloca i32, align 4
  store i32 %0, ptr %2, align 4, !tbaa !17
  %3 = load i32, ptr %2, align 4, !tbaa !17
  %4 = xor i32 %3, -1
  ret i32 %4
}

; Function Attrs: mustprogress uwtable
define noundef i32 @_ZN7rocksdb6crc32c13Crc32cCombineEjjm(i32 noundef %0, i32 noundef %1, i64 noundef %2) #0 {
  %4 = alloca i32, align 4
  %5 = alloca i32, align 4
  %6 = alloca i64, align 8
  %7 = alloca i32, align 4
  %8 = alloca i32, align 4
  %9 = alloca i32, align 4
  %10 = alloca [4 x i8], align 1
  %11 = alloca i64, align 8
  %12 = alloca i32, align 4
  store i32 %0, ptr %4, align 4, !tbaa !17
  store i32 %1, ptr %5, align 4, !tbaa !17
  store i64 %2, ptr %6, align 8, !tbaa !15
  call void @llvm.lifetime.start.p0(i64 4, ptr %7) #17
  %13 = load i32, ptr %4, align 4, !tbaa !17
  %14 = call noundef i32 @_ZN7rocksdb6crc32cL14InvertedToPureEj(i32 noundef %13)
  store i32 %14, ptr %7, align 4, !tbaa !17
  call void @llvm.lifetime.start.p0(i64 4, ptr %8) #17
  %15 = load i32, ptr %5, align 4, !tbaa !17
  %16 = call noundef i32 @_ZN7rocksdb6crc32cL14InvertedToPureEj(i32 noundef %15)
  store i32 %16, ptr %8, align 4, !tbaa !17
  call void @llvm.lifetime.start.p0(i64 4, ptr %9) #17
  store i32 -1, ptr %9, align 4, !tbaa !17
  call void @llvm.lifetime.start.p0(i64 4, ptr %10) #17
  call void @llvm.memset.p0.i64(ptr align 1 %10, i8 0, i64 4, i1 false)
  call void @llvm.lifetime.start.p0(i64 8, ptr %11) #17
  %17 = load i64, ptr %6, align 8, !tbaa !15
  %18 = and i64 %17, 3
  store i64 %18, ptr %11, align 8, !tbaa !15
  call void @llvm.lifetime.start.p0(i64 4, ptr %12) #17
  %19 = load i32, ptr %7, align 4, !tbaa !17
  %20 = load i32, ptr %9, align 4, !tbaa !17
  %21 = xor i32 %19, %20
  store i32 %21, ptr %12, align 4, !tbaa !17
  %22 = load i64, ptr %11, align 8, !tbaa !15
  %23 = icmp ne i64 %22, 0
  br i1 %23, label %24, label %29

24:                                               ; preds = %3
  %25 = load i32, ptr %12, align 4, !tbaa !17
  %26 = getelementptr inbounds [4 x i8], ptr %10, i64 0, i64 0
  %27 = load i64, ptr %11, align 8, !tbaa !15
  %28 = call noundef i32 @_ZN7rocksdb6crc32cL10PureExtendEjPKcm(i32 noundef %25, ptr noundef %26, i64 noundef %27)
  store i32 %28, ptr %12, align 4, !tbaa !17
  br label %29

29:                                               ; preds = %24, %3
  %30 = load i32, ptr %12, align 4, !tbaa !17
  %31 = load i64, ptr %6, align 8, !tbaa !15
  %32 = udiv i64 %31, 4
  %33 = call noundef i32 @_ZN7rocksdb6crc32cL17Crc32AppendZeroesEjmjRKSt5arrayIjLm62EE(i32 noundef %30, i64 noundef %32, i32 noundef -2097792136, ptr noundef nonnull align 4 dereferenceable(248) @_ZN7rocksdb6crc32cL13crc32c_powersE)
  %34 = load i32, ptr %8, align 4, !tbaa !17
  %35 = xor i32 %33, %34
  %36 = call noundef i32 @_ZN7rocksdb6crc32cL14PureToInvertedEj(i32 noundef %35)
  call void @llvm.lifetime.end.p0(i64 4, ptr %12) #17
  call void @llvm.lifetime.end.p0(i64 8, ptr %11) #17
  call void @llvm.lifetime.end.p0(i64 4, ptr %10) #17
  call void @llvm.lifetime.end.p0(i64 4, ptr %9) #17
  call void @llvm.lifetime.end.p0(i64 4, ptr %8) #17
  call void @llvm.lifetime.end.p0(i64 4, ptr %7) #17
  ret i32 %36
}