; Function Attrs: mustprogress nofree norecurse nosync nounwind willreturn memory(read, inaccessiblemem: none) uwtable
define noundef i32 @_ZN7rocksdb6crc32c13Crc32cCombineEjjm(i32 noundef %0, i32 noundef %1, i64 noundef %2) local_unnamed_addr #3 {
  %4 = alloca [4 x i8], align 4
  call void @llvm.lifetime.start.p0(i64 4, ptr nonnull %4) #11
  store i32 0, ptr %4, align 4
  %5 = and i64 %2, 3
  %.not = icmp eq i64 %5, 0
  br i1 %.not, label %10, label %6

6:                                                ; preds = %3
  %7 = xor i32 %0, -1
  %8 = call noundef i32 @_ZN7rocksdb6crc32c11crc32c_3wayEjPKcm(i32 noundef %7, ptr noundef nonnull readonly %4, i64 noundef range(i64 1, 4) %5), !callees !22
  %9 = xor i32 %8, -1
  br label %10

10:                                               ; preds = %6, %3
  %.0 = phi i32 [ %9, %6 ], [ %0, %3 ]
  %.not1.i = icmp ult i64 %2, 4
  br i1 %.not1.i, label %_ZN7rocksdb6crc32cL17Crc32AppendZeroesEjmjRKSt5arrayIjLm62EE.exit, label %.lr.ph.i.preheader

.lr.ph.i.preheader:                               ; preds = %10
  %11 = lshr i64 %2, 2
  br label %.lr.ph.i

.lr.ph.i:                                         ; preds = %.lr.ph.i.preheader, %_ZN7rocksdb6crc32cL14gf_multiply_swEjjj.exit.i
  %.04.i = phi i32 [ %17, %_ZN7rocksdb6crc32cL14gf_multiply_swEjjj.exit.i ], [ %.0, %.lr.ph.i.preheader ]
  %.0133.i = phi i64 [ %26, %_ZN7rocksdb6crc32cL14gf_multiply_swEjjj.exit.i ], [ %11, %.lr.ph.i.preheader ]
  %.0142.i = phi ptr [ %27, %_ZN7rocksdb6crc32cL14gf_multiply_swEjjj.exit.i ], [ @_ZN7rocksdb6crc32cL13crc32c_powersE, %.lr.ph.i.preheader ]
  %12 = call range(i64 0, 65) i64 @llvm.cttz.i64(i64 %.0133.i, i1 true)
  %13 = getelementptr inbounds nuw i32, ptr %.0142.i, i64 %12
  %14 = load i32, ptr %13, align 4, !tbaa !15
  br label %tailrecurse.i.i.i

tailrecurse.i.i.i:                                ; preds = %tailrecurse.i.i.i, %.lr.ph.i
  %.tr1318.i.i.i = phi i32 [ %23, %tailrecurse.i.i.i ], [ %14, %.lr.ph.i ]
  %.tr1217.i.i.i = phi i32 [ %22, %tailrecurse.i.i.i ], [ %.04.i, %.lr.ph.i ]
  %.tr1116.i.i.i = phi i32 [ %17, %tailrecurse.i.i.i ], [ 0, %.lr.ph.i ]
  %.tr15.i.i.i = phi i64 [ %15, %tailrecurse.i.i.i ], [ 0, %.lr.ph.i ]
  %15 = add nuw nsw i64 %.tr15.i.i.i, 1
  %isneg.i.i.i = icmp slt i32 %.tr1318.i.i.i, 0
  %16 = select i1 %isneg.i.i.i, i32 %.tr1217.i.i.i, i32 0
  %17 = xor i32 %16, %.tr1116.i.i.i
  %18 = lshr i32 %.tr1217.i.i.i, 1
  %19 = and i32 %.tr1217.i.i.i, 1
  %20 = icmp eq i32 %19, 0
  %21 = select i1 %20, i32 0, i32 -2097792136
  %22 = xor i32 %21, %18
  %23 = shl i32 %.tr1318.i.i.i, 1
  %24 = icmp eq i64 %15, 32
  br i1 %24, label %_ZN7rocksdb6crc32cL14gf_multiply_swEjjj.exit.i, label %tailrecurse.i.i.i

_ZN7rocksdb6crc32cL14gf_multiply_swEjjj.exit.i:   ; preds = %tailrecurse.i.i.i
  %25 = lshr i64 %.0133.i, %12
  %26 = lshr i64 %25, 1
  %27 = getelementptr inbounds nuw i8, ptr %13, i64 4
  %.not.i = icmp samesign ult i64 %25, 2
  br i1 %.not.i, label %_ZN7rocksdb6crc32cL17Crc32AppendZeroesEjmjRKSt5arrayIjLm62EE.exit, label %.lr.ph.i, !llvm.loop !23

_ZN7rocksdb6crc32cL17Crc32AppendZeroesEjmjRKSt5arrayIjLm62EE.exit: ; preds = %_ZN7rocksdb6crc32cL14gf_multiply_swEjjj.exit.i, %10
  %.0.lcssa.i = phi i32 [ %.0, %10 ], [ %17, %_ZN7rocksdb6crc32cL14gf_multiply_swEjjj.exit.i ]
  %28 = xor i32 %.0.lcssa.i, %1
  call void @llvm.lifetime.end.p0(i64 4, ptr nonnull %4) #11
  ret i32 %28
}